target datalayout = "e-m:e-p270:32:32-p271:32:32-p272:64:64-i64:64-i128:128-f80:128-n8:16:32:64-S128"
target triple = "x86_64-pc-linux-gnu"

%struct.H5E_error2_t = type { i64, i64, i64, i32, ptr, ptr, ptr }
%struct.H5E_cls_t = type { i8, ptr, ptr, ptr }
%struct.H5E_msg_t = type { i8, ptr, i32, ptr }
%struct.H5E_print_t = type { ptr, %struct.H5E_cls_t }

@H5E_init_g = external global i8, align 1
@H5_libterm_g = external global i8, align 1
@stderr = external global ptr, align 8
@.str.389 = private unnamed_addr constant [21 x i8] c"No major description\00", align 1
@.str.390 = private unnamed_addr constant [21 x i8] c"No minor description\00", align 1
@.str.391 = private unnamed_addr constant [35 x i8] c"%s-DIAG: Error detected in %s (%s)\00", align 1
@.str.392 = private unnamed_addr constant [7 x i8] c"(null)\00", align 1
@.str.393 = private unnamed_addr constant [3 x i8] c":\0A\00", align 1
@.str.395 = private unnamed_addr constant [1 x i8] zeroinitializer, align 1
@.str.396 = private unnamed_addr constant [3 x i8] c": \00", align 1
@.str.397 = private unnamed_addr constant [14 x i8] c"%*smajor: %s\0A\00", align 1
@.str.398 = private unnamed_addr constant [14 x i8] c"%*sminor: %s\0A\00", align 1
@.str.399 = private unnamed_addr constant [34 x i8] c"%*s#%03u: %s line %u in %s()%s%s\0A\00", align 1

; Function Attrs: nounwind uwtable
define internal i32 @H5E__walk2_cb(i32 noundef %0, ptr noundef %1, ptr noundef %2) #0 {
  %4 = alloca i32, align 4
  %5 = alloca ptr, align 8
  %6 = alloca ptr, align 8
  %7 = alloca ptr, align 8
  %8 = alloca ptr, align 8
  %9 = alloca ptr, align 8
  %10 = alloca ptr, align 8
  %11 = alloca ptr, align 8
  %12 = alloca ptr, align 8
  %13 = alloca ptr, align 8
  %14 = alloca i8, align 1
  %15 = alloca i32, align 4
  store i32 %0, ptr %4, align 4, !tbaa !3
  store ptr %1, ptr %5, align 8, !tbaa !89
  store ptr %2, ptr %6, align 8, !tbaa !49
  call void @llvm.lifetime.start.p0(i64 8, ptr %7) #9
  %16 = load ptr, ptr %6, align 8, !tbaa !49
  store ptr %16, ptr %7, align 8, !tbaa !72
  call void @llvm.lifetime.start.p0(i64 8, ptr %8) #9
  call void @llvm.lifetime.start.p0(i64 8, ptr %9) #9
  call void @llvm.lifetime.start.p0(i64 8, ptr %10) #9
  call void @llvm.lifetime.start.p0(i64 8, ptr %11) #9
  call void @llvm.lifetime.start.p0(i64 8, ptr %12) #9
  store ptr @.str.389, ptr %12, align 8, !tbaa !13
  call void @llvm.lifetime.start.p0(i64 8, ptr %13) #9
  store ptr @.str.390, ptr %13, align 8, !tbaa !13
  call void @llvm.lifetime.start.p0(i64 1, ptr %14) #9
  store i8 1, ptr %14, align 1, !tbaa !7
  call void @llvm.lifetime.start.p0(i64 4, ptr %15) #9
  store i32 0, ptr %15, align 4, !tbaa !3
  %17 = load i8, ptr @H5E_init_g, align 1, !tbaa !7, !range !9, !noundef !10
  %18 = trunc i8 %17 to i1
  br i1 %18, label %23, label %19

19:                                               ; preds = %3
  %20 = load i8, ptr @H5_libterm_g, align 1, !tbaa !7, !range !9, !noundef !10
  %21 = trunc i8 %20 to i1
  %22 = xor i1 %21, true
  br label %23

23:                                               ; preds = %19, %3
  %24 = phi i1 [ true, %3 ], [ %22, %19 ]
  %25 = xor i1 %24, true
  %26 = xor i1 %25, true
  %27 = zext i1 %26 to i32
  %28 = sext i32 %27 to i64
  %29 = call i64 @llvm.expect.i64(i64 %28, i64 1)
  %30 = icmp ne i64 %29, 0
  br i1 %30, label %31, label %221

31:                                               ; preds = %23
  %32 = load ptr, ptr %6, align 8, !tbaa !49
  %33 = icmp ne ptr %32, null
  br i1 %33, label %36, label %34

34:                                               ; preds = %31
  %35 = load ptr, ptr @stderr, align 8, !tbaa !63
  store ptr %35, ptr %8, align 8, !tbaa !63
  br label %40

36:                                               ; preds = %31
  %37 = load ptr, ptr %7, align 8, !tbaa !72
  %38 = getelementptr inbounds nuw %struct.H5E_print_t, ptr %37, i32 0, i32 0
  %39 = load ptr, ptr %38, align 8, !tbaa !65
  store ptr %39, ptr %8, align 8, !tbaa !63
  br label %40

40:                                               ; preds = %36, %34
  %41 = load ptr, ptr %5, align 8, !tbaa !89
  %42 = getelementptr inbounds nuw %struct.H5E_error2_t, ptr %41, i32 0, i32 1
  %43 = load i64, ptr %42, align 8, !tbaa !91
  %44 = call ptr @H5I_object_verify(i64 noundef %43, i32 noundef 13)
  store ptr %44, ptr %10, align 8, !tbaa !39
  %45 = load ptr, ptr %5, align 8, !tbaa !89
  %46 = getelementptr inbounds nuw %struct.H5E_error2_t, ptr %45, i32 0, i32 2
  %47 = load i64, ptr %46, align 8, !tbaa !92
  %48 = call ptr @H5I_object_verify(i64 noundef %47, i32 noundef 13)
  store ptr %48, ptr %11, align 8, !tbaa !39
  %49 = load ptr, ptr %10, align 8, !tbaa !39
  %50 = icmp ne ptr %49, null
  br i1 %50, label %51, label %54

51:                                               ; preds = %40
  %52 = load ptr, ptr %11, align 8, !tbaa !39
  %53 = icmp ne ptr %52, null
  br i1 %53, label %58, label %54

54:                                               ; preds = %51, %40
  br label %55

55:                                               ; preds = %54
  store i32 -1, ptr %15, align 4, !tbaa !3
  br label %220

56:                                               ; No predecessors!
  br label %57

57:                                               ; preds = %56
  br label %58

58:                                               ; preds = %57, %51
  %59 = load ptr, ptr %10, align 8, !tbaa !39
  %60 = getelementptr inbounds nuw %struct.H5E_msg_t, ptr %59, i32 0, i32 1
  %61 = load ptr, ptr %60, align 8, !tbaa !45
  %62 = icmp ne ptr %61, null
  br i1 %62, label %63, label %67

63:                                               ; preds = %58
  %64 = load ptr, ptr %10, align 8, !tbaa !39
  %65 = getelementptr inbounds nuw %struct.H5E_msg_t, ptr %64, i32 0, i32 1
  %66 = load ptr, ptr %65, align 8, !tbaa !45
  store ptr %66, ptr %12, align 8, !tbaa !13
  br label %67

67:                                               ; preds = %63, %58
  %68 = load ptr, ptr %11, align 8, !tbaa !39
  %69 = getelementptr inbounds nuw %struct.H5E_msg_t, ptr %68, i32 0, i32 1
  %70 = load ptr, ptr %69, align 8, !tbaa !45
  %71 = icmp ne ptr %70, null
  br i1 %71, label %72, label %76

72:                                               ; preds = %67
  %73 = load ptr, ptr %11, align 8, !tbaa !39
  %74 = getelementptr inbounds nuw %struct.H5E_msg_t, ptr %73, i32 0, i32 1
  %75 = load ptr, ptr %74, align 8, !tbaa !45
  store ptr %75, ptr %13, align 8, !tbaa !13
  br label %76

76:                                               ; preds = %72, %67
  %77 = load ptr, ptr %5, align 8, !tbaa !89
  %78 = getelementptr inbounds nuw %struct.H5E_error2_t, ptr %77, i32 0, i32 0
  %79 = load i64, ptr %78, align 8, !tbaa !93
  %80 = call ptr @H5I_object_verify(i64 noundef %79, i32 noundef 12)
  store ptr %80, ptr %9, align 8, !tbaa !32
  %81 = load ptr, ptr %9, align 8, !tbaa !32
  %82 = icmp ne ptr %81, null
  br i1 %82, label %87, label %83

83:                                               ; preds = %76
  br label %84

84:                                               ; preds = %83
  store i32 -1, ptr %15, align 4, !tbaa !3
  br label %220

85:                                               ; No predecessors!
  br label %86

86:                                               ; preds = %85
  br label %87

87:                                               ; preds = %86, %76
  %88 = load ptr, ptr %7, align 8, !tbaa !72
  %89 = getelementptr inbounds nuw %struct.H5E_print_t, ptr %88, i32 0, i32 1
  %90 = getelementptr inbounds nuw %struct.H5E_cls_t, ptr %89, i32 0, i32 2
  %91 = load ptr, ptr %90, align 8, !tbaa !77
  %92 = icmp eq ptr %91, null
  br i1 %92, label %103, label %93

93:                                               ; preds = %87
  %94 = load ptr, ptr %9, align 8, !tbaa !32
  %95 = getelementptr inbounds nuw %struct.H5E_cls_t, ptr %94, i32 0, i32 2
  %96 = load ptr, ptr %95, align 8, !tbaa !37
  %97 = load ptr, ptr %7, align 8, !tbaa !72
  %98 = getelementptr inbounds nuw %struct.H5E_print_t, ptr %97, i32 0, i32 1
  %99 = getelementptr inbounds nuw %struct.H5E_cls_t, ptr %98, i32 0, i32 2
  %100 = load ptr, ptr %99, align 8, !tbaa !77
  %101 = call i32 @strcmp(ptr noundef %96, ptr noundef %100) #10
  %102 = icmp ne i32 %101, 0
  br i1 %102, label %103, label %177

103:                                              ; preds = %93, %87
  %104 = load ptr, ptr %9, align 8, !tbaa !32
  %105 = getelementptr inbounds nuw %struct.H5E_cls_t, ptr %104, i32 0, i32 1
  %106 = load ptr, ptr %105, align 8, !tbaa !36
  %107 = icmp ne ptr %106, null
  br i1 %107, label %108, label %115

108:                                              ; preds = %103
  %109 = load ptr, ptr %9, align 8, !tbaa !32
  %110 = getelementptr inbounds nuw %struct.H5E_cls_t, ptr %109, i32 0, i32 1
  %111 = load ptr, ptr %110, align 8, !tbaa !36
  %112 = load ptr, ptr %7, align 8, !tbaa !72
  %113 = getelementptr inbounds nuw %struct.H5E_print_t, ptr %112, i32 0, i32 1
  %114 = getelementptr inbounds nuw %struct.H5E_cls_t, ptr %113, i32 0, i32 1
  store ptr %111, ptr %114, align 8, !tbaa !78
  br label %115

115:                                              ; preds = %108, %103
  %116 = load ptr, ptr %9, align 8, !tbaa !32
  %117 = getelementptr inbounds nuw %struct.H5E_cls_t, ptr %116, i32 0, i32 2
  %118 = load ptr, ptr %117, align 8, !tbaa !37
  %119 = icmp ne ptr %118, null
  br i1 %119, label %120, label %127

120:                                              ; preds = %115
  %121 = load ptr, ptr %9, align 8, !tbaa !32
  %122 = getelementptr inbounds nuw %struct.H5E_cls_t, ptr %121, i32 0, i32 2
  %123 = load ptr, ptr %122, align 8, !tbaa !37
  %124 = load ptr, ptr %7, align 8, !tbaa !72
  %125 = getelementptr inbounds nuw %struct.H5E_print_t, ptr %124, i32 0, i32 1
  %126 = getelementptr inbounds nuw %struct.H5E_cls_t, ptr %125, i32 0, i32 2
  store ptr %123, ptr %126, align 8, !tbaa !77
  br label %127

127:                                              ; preds = %120, %115
  %128 = load ptr, ptr %9, align 8, !tbaa !32
  %129 = getelementptr inbounds nuw %struct.H5E_cls_t, ptr %128, i32 0, i32 3
  %130 = load ptr, ptr %129, align 8, !tbaa !38
  %131 = icmp ne ptr %130, null
  br i1 %131, label %132, label %139

132:                                              ; preds = %127
  %133 = load ptr, ptr %9, align 8, !tbaa !32
  %134 = getelementptr inbounds nuw %struct.H5E_cls_t, ptr %133, i32 0, i32 3
  %135 = load ptr, ptr %134, align 8, !tbaa !38
  %136 = load ptr, ptr %7, align 8, !tbaa !72
  %137 = getelementptr inbounds nuw %struct.H5E_print_t, ptr %136, i32 0, i32 1
  %138 = getelementptr inbounds nuw %struct.H5E_cls_t, ptr %137, i32 0, i32 3
  store ptr %135, ptr %138, align 8, !tbaa !79
  br label %139

139:                                              ; preds = %132, %127
  %140 = load ptr, ptr %8, align 8, !tbaa !63
  %141 = load ptr, ptr %9, align 8, !tbaa !32
  %142 = getelementptr inbounds nuw %struct.H5E_cls_t, ptr %141, i32 0, i32 1
  %143 = load ptr, ptr %142, align 8, !tbaa !36
  %144 = icmp ne ptr %143, null
  br i1 %144, label %145, label %149

145:                                              ; preds = %139
  %146 = load ptr, ptr %9, align 8, !tbaa !32
  %147 = getelementptr inbounds nuw %struct.H5E_cls_t, ptr %146, i32 0, i32 1
  %148 = load ptr, ptr %147, align 8, !tbaa !36
  br label %150

149:                                              ; preds = %139
  br label %150

150:                                              ; preds = %149, %145
  %151 = phi ptr [ %148, %145 ], [ @.str.392, %149 ]
  %152 = load ptr, ptr %9, align 8, !tbaa !32
  %153 = getelementptr inbounds nuw %struct.H5E_cls_t, ptr %152, i32 0, i32 2
  %154 = load ptr, ptr %153, align 8, !tbaa !37
  %155 = icmp ne ptr %154, null
  br i1 %155, label %156, label %160

156:                                              ; preds = %150
  %157 = load ptr, ptr %9, align 8, !tbaa !32
  %158 = getelementptr inbounds nuw %struct.H5E_cls_t, ptr %157, i32 0, i32 2
  %159 = load ptr, ptr %158, align 8, !tbaa !37
  br label %161

160:                                              ; preds = %150
  br label %161

161:                                              ; preds = %160, %156
  %162 = phi ptr [ %159, %156 ], [ @.str.392, %160 ]
  %163 = load ptr, ptr %9, align 8, !tbaa !32
  %164 = getelementptr inbounds nuw %struct.H5E_cls_t, ptr %163, i32 0, i32 3
  %165 = load ptr, ptr %164, align 8, !tbaa !38
  %166 = icmp ne ptr %165, null
  br i1 %166, label %167, label %171

167:                                              ; preds = %161
  %168 = load ptr, ptr %9, align 8, !tbaa !32
  %169 = getelementptr inbounds nuw %struct.H5E_cls_t, ptr %168, i32 0, i32 3
  %170 = load ptr, ptr %169, align 8, !tbaa !38
  br label %172

171:                                              ; preds = %161
  br label %172

172:                                              ; preds = %171, %167
  %173 = phi ptr [ %170, %167 ], [ @.str.392, %171 ]
  %174 = call i32 (ptr, ptr, ...) @fprintf(ptr noundef %140, ptr noundef @.str.391, ptr noundef %151, ptr noundef %162, ptr noundef %173) #9
  %175 = load ptr, ptr %8, align 8, !tbaa !63
  %176 = call i32 (ptr, ptr, ...) @fprintf(ptr noundef %175, ptr noundef @.str.393) #9
  br label %177

177:                                              ; preds = %172, %93
  %178 = load ptr, ptr %5, align 8, !tbaa !89
  %179 = getelementptr inbounds nuw %struct.H5E_error2_t, ptr %178, i32 0, i32 6
  %180 = load ptr, ptr %179, align 8, !tbaa !94
  %181 = icmp eq ptr %180, null
  br i1 %181, label %188, label %182

182:                                              ; preds = %177
  %183 = load ptr, ptr %5, align 8, !tbaa !89
  %184 = getelementptr inbounds nuw %struct.H5E_error2_t, ptr %183, i32 0, i32 6
  %185 = load ptr, ptr %184, align 8, !tbaa !94
  %186 = call i64 @strlen(ptr noundef %185) #10
  %187 = icmp eq i64 %186, 0
  br i1 %187, label %188, label %189

188:                                              ; preds = %182, %177
  store i8 0, ptr %14, align 1, !tbaa !7
  br label %189

189:                                              ; preds = %188, %182
  %190 = load ptr, ptr %8, align 8, !tbaa !63
  %191 = load i32, ptr %4, align 4, !tbaa !3
  %192 = load ptr, ptr %5, align 8, !tbaa !89
  %193 = getelementptr inbounds nuw %struct.H5E_error2_t, ptr %192, i32 0, i32 5
  %194 = load ptr, ptr %193, align 8, !tbaa !95
  %195 = load ptr, ptr %5, align 8, !tbaa !89
  %196 = getelementptr inbounds nuw %struct.H5E_error2_t, ptr %195, i32 0, i32 3
  %197 = load i32, ptr %196, align 8, !tbaa !96
  %198 = load ptr, ptr %5, align 8, !tbaa !89
  %199 = getelementptr inbounds nuw %struct.H5E_error2_t, ptr %198, i32 0, i32 4
  %200 = load ptr, ptr %199, align 8, !tbaa !97
  %201 = load i8, ptr %14, align 1, !tbaa !7, !range !9, !noundef !10
  %202 = trunc i8 %201 to i1
  %203 = select i1 %202, ptr @.str.396, ptr @.str.395
  %204 = load i8, ptr %14, align 1, !tbaa !7, !range !9, !noundef !10
  %205 = trunc i8 %204 to i1
  br i1 %205, label %206, label %210

206:                                              ; preds = %189
  %207 = load ptr, ptr %5, align 8, !tbaa !89
  %208 = getelementptr inbounds nuw %struct.H5E_error2_t, ptr %207, i32 0, i32 6
  %209 = load ptr, ptr %208, align 8, !tbaa !94
  br label %211

210:                                              ; preds = %189
  br label %211

211:                                              ; preds = %210, %206
  %212 = phi ptr [ %209, %206 ], [ @.str.395, %210 ]
  %213 = call i32 (ptr, ptr, ...) @fprintf(ptr noundef %190, ptr noundef @.str.399, i32 noundef 2, ptr noundef @.str.395, i32 noundef %191, ptr noundef %194, i32 noundef %197, ptr noundef %200, ptr noundef %203, ptr noundef %212) #9
  %214 = load ptr, ptr %8, align 8, !tbaa !63
  %215 = load ptr, ptr %12, align 8, !tbaa !13
  %216 = call i32 (ptr, ptr, ...) @fprintf(ptr noundef %214, ptr noundef @.str.397, i32 noundef 4, ptr noundef @.str.395, ptr noundef %215) #9
  %217 = load ptr, ptr %8, align 8, !tbaa !63
  %218 = load ptr, ptr %13, align 8, !tbaa !13
  %219 = call i32 (ptr, ptr, ...) @fprintf(ptr noundef %217, ptr noundef @.str.398, i32 noundef 4, ptr noundef @.str.395, ptr noundef %218) #9
  br label %220

220:                                              ; preds = %211, %84, %55
  br label %221

221:                                              ; preds = %220, %23
  %222 = load i32, ptr %15, align 4, !tbaa !3
  call void @llvm.lifetime.end.p0(i64 4, ptr %15) #9
  call void @llvm.lifetime.end.p0(i64 1, ptr %14) #9
  call void @llvm.lifetime.end.p0(i64 8, ptr %13) #9
  call void @llvm.lifetime.end.p0(i64 8, ptr %12) #9
  call void @llvm.lifetime.end.p0(i64 8, ptr %11) #9
  call void @llvm.lifetime.end.p0(i64 8, ptr %10) #9
  call void @llvm.lifetime.end.p0(i64 8, ptr %9) #9
  call void @llvm.lifetime.end.p0(i64 8, ptr %8) #9
  call void @llvm.lifetime.end.p0(i64 8, ptr %7) #9
  ret i32 %222
}