; Function Attrs: nounwind uwtable
define internal range(i32 -1, 1) i32 @H5E__walk2_cb(i32 noundef %0, ptr noundef readonly captures(none) %1, ptr noundef captures(address_is_null) %2) #0 {
  %4 = load i8, ptr @H5E_init_g, align 1, !tbaa !3, !range !7, !noundef !8
  %5 = trunc nuw i8 %4 to i1
  %6 = load i8, ptr @H5_libterm_g, align 1, !range !7
  %7 = trunc nuw i8 %6 to i1
  %8 = xor i1 %7, true
  %9 = select i1 %5, i1 true, i1 %8
  br i1 %9, label %10, label %71, !prof !9

10:                                               ; preds = %3
  %.not = icmp eq ptr %2, null
  %stderr. = select i1 %.not, ptr @stderr, ptr %2
  %.051 = load ptr, ptr %stderr., align 8, !tbaa !69
  %11 = getelementptr inbounds nuw i8, ptr %1, i64 8
  %12 = load i64, ptr %11, align 8, !tbaa !23
  %13 = tail call ptr @H5I_object_verify(i64 noundef %12, i32 noundef 13) #16
  %14 = getelementptr inbounds nuw i8, ptr %1, i64 16
  %15 = load i64, ptr %14, align 8, !tbaa !24
  %16 = tail call ptr @H5I_object_verify(i64 noundef %15, i32 noundef 13) #16
  %17 = icmp ne ptr %13, null
  %18 = icmp ne ptr %16, null
  %or.cond = select i1 %17, i1 %18, i1 false
  br i1 %or.cond, label %19, label %71

19:                                               ; preds = %10
  %20 = getelementptr inbounds nuw i8, ptr %13, i64 8
  %21 = load ptr, ptr %20, align 8, !tbaa !48
  %.not66 = icmp eq ptr %21, null
  %spec.select = select i1 %.not66, ptr @.str.389, ptr %21
  %22 = getelementptr inbounds nuw i8, ptr %16, i64 8
  %23 = load ptr, ptr %22, align 8, !tbaa !48
  %.not67 = icmp eq ptr %23, null
  %.049 = select i1 %.not67, ptr @.str.390, ptr %23
  %24 = load i64, ptr %1, align 8, !tbaa !22
  %25 = tail call ptr @H5I_object_verify(i64 noundef %24, i32 noundef 12) #16
  %.not68 = icmp eq ptr %25, null
  br i1 %.not68, label %71, label %26

26:                                               ; preds = %19
  %27 = getelementptr inbounds nuw i8, ptr %2, i64 24
  %28 = load ptr, ptr %27, align 8, !tbaa !73
  %29 = icmp eq ptr %28, null
  br i1 %29, label %34, label %30

30:                                               ; preds = %26
  %31 = getelementptr inbounds nuw i8, ptr %25, i64 16
  %32 = load ptr, ptr %31, align 8, !tbaa !41
  %33 = tail call i32 @strcmp(ptr noundef nonnull dereferenceable(1) %32, ptr noundef nonnull dereferenceable(1) %28) #17
  %.not69 = icmp eq i32 %33, 0
  br i1 %.not69, label %56, label %34

34:                                               ; preds = %30, %26
  %35 = getelementptr inbounds nuw i8, ptr %25, i64 8
  %36 = load ptr, ptr %35, align 8, !tbaa !40
  %.not70 = icmp eq ptr %36, null
  br i1 %.not70, label %39, label %37

37:                                               ; preds = %34
  %38 = getelementptr inbounds nuw i8, ptr %2, i64 16
  store ptr %36, ptr %38, align 8, !tbaa !74
  br label %39

39:                                               ; preds = %37, %34
  %40 = getelementptr inbounds nuw i8, ptr %25, i64 16
  %41 = load ptr, ptr %40, align 8, !tbaa !41
  %.not71 = icmp eq ptr %41, null
  br i1 %.not71, label %43, label %42

42:                                               ; preds = %39
  store ptr %41, ptr %27, align 8, !tbaa !73
  br label %43

43:                                               ; preds = %42, %39
  %44 = getelementptr inbounds nuw i8, ptr %25, i64 24
  %45 = load ptr, ptr %44, align 8, !tbaa !42
  %.not72 = icmp eq ptr %45, null
  br i1 %.not72, label %48, label %46

46:                                               ; preds = %43
  %47 = getelementptr inbounds nuw i8, ptr %2, i64 32
  store ptr %45, ptr %47, align 8, !tbaa !75
  %.pre = load ptr, ptr %44, align 8, !tbaa !42
  br label %48

48:                                               ; preds = %46, %43
  %49 = phi ptr [ %.pre, %46 ], [ null, %43 ]
  %50 = load ptr, ptr %35, align 8, !tbaa !40
  %.not73 = icmp eq ptr %50, null
  %spec.select76 = select i1 %.not73, ptr @.str.392, ptr %50
  %51 = load ptr, ptr %40, align 8, !tbaa !41
  %.not74 = icmp eq ptr %51, null
  %52 = select i1 %.not74, ptr @.str.392, ptr %51
  %.not75 = icmp eq ptr %49, null
  %53 = select i1 %.not75, ptr @.str.392, ptr %49
  %54 = tail call i32 (ptr, ptr, ...) @fprintf(ptr noundef %.051, ptr noundef nonnull @.str.391, ptr noundef nonnull %spec.select76, ptr noundef nonnull %52, ptr noundef nonnull %53) #16
  %55 = tail call i64 @fwrite(ptr nonnull @.str.393, i64 2, i64 1, ptr %.051)
  br label %56

56:                                               ; preds = %48, %30
  %57 = getelementptr inbounds nuw i8, ptr %1, i64 48
  %58 = load ptr, ptr %57, align 8, !tbaa !29
  %59 = icmp eq ptr %58, null
  br i1 %59, label %62, label %60

60:                                               ; preds = %56
  %char0 = load i8, ptr %58, align 1
  %61 = icmp eq i8 %char0, 0
  %spec.select84 = select i1 %61, ptr @.str.395, ptr @.str.396
  %spec.select85 = select i1 %61, ptr @.str.395, ptr %58
  br label %62

62:                                               ; preds = %60, %56
  %63 = phi ptr [ @.str.395, %56 ], [ %spec.select84, %60 ]
  %64 = phi ptr [ @.str.395, %56 ], [ %spec.select85, %60 ]
  %.in83 = getelementptr inbounds nuw i8, ptr %1, i64 32
  %65 = load ptr, ptr %.in83, align 8, !tbaa !25
  %.in82 = getelementptr inbounds nuw i8, ptr %1, i64 24
  %66 = load i32, ptr %.in82, align 8, !tbaa !27
  %.in = getelementptr inbounds nuw i8, ptr %1, i64 40
  %67 = load ptr, ptr %.in, align 8, !tbaa !26
  %68 = tail call i32 (ptr, ptr, ...) @fprintf(ptr noundef %.051, ptr noundef nonnull @.str.399, i32 noundef 2, ptr noundef nonnull @.str.395, i32 noundef %0, ptr noundef %67, i32 noundef %66, ptr noundef %65, ptr noundef nonnull %63, ptr noundef nonnull %64) #16
  %69 = tail call i32 (ptr, ptr, ...) @fprintf(ptr noundef %.051, ptr noundef nonnull @.str.397, i32 noundef 4, ptr noundef nonnull @.str.395, ptr noundef nonnull %spec.select) #16
  %70 = tail call i32 (ptr, ptr, ...) @fprintf(ptr noundef %.051, ptr noundef nonnull @.str.398, i32 noundef 4, ptr noundef nonnull @.str.395, ptr noundef nonnull %.049) #16
  br label %71

71:                                               ; preds = %19, %10, %62, %3
  %.0 = phi i32 [ 0, %62 ], [ 0, %3 ], [ -1, %10 ], [ -1, %19 ]
  ret i32 %.0
}